Certificate:
    Data:
        Version: 3 (0x2)
        Serial Number:
            53:1f:8c:9b:29:2d:91:f1:4a:b6:8b:1f:9e:ed:b8:67
        Signature Algorithm: sha256WithRSAEncryption
        Issuer: CN=ChangeMe
        Validity
            Not Before: May 10 10:20:00 2025 GMT
            Not After : Aug 13 10:20:00 2027 GMT
        Subject: CN=client
        Subject Public Key Info:
            Public Key Algorithm: rsaEncryption
                Public-Key: (2048 bit)
                Modulus:
                    00:a1:34:ad:cc:7b:e4:b2:e6:3e:9b:56:a3:26:3c:
                    e3:bd:31:b7:ed:b3:68:9e:88:fb:f9:48:f0:9b:10:
                    7e:73:cb:13:b4:61:ec:15:83:19:2b:e9:7d:e5:f3:
                    21:cf:5f:38:6d:07:58:bc:fa:b0:fa:3c:23:45:36:
                    3f:de:48:73:ab:38:e7:34:cf:25:35:99:26:7a:5d:
                    7a:91:a4:50:13:86:9e:5b:5d:29:78:ce:42:38:41:
                    77:fa:bb:4f:b3:ea:56:67:45:1b:b9:0d:1b:b0:ee:
                    0e:12:fc:26:6f:2e:60:ab:ef:ec:98:e0:3b:ce:cd:
                    9e:1c:1d:73:65:b2:47:94:8c:ac:e2:0a:27:11:29:
                    8e:13:96:82:03:6b:90:f2:3b:fc:80:2e:4e:5d:61:
                    a6:94:60:64:af:1f:89:ab:cf:62:52:db:39:47:43:
                    9b:f5:0c:96:10:f5:9a:59:8e:e3:b4:1e:67:cc:e8:
                    99:71:0c:43:f9:f5:12:9b:ec:ae:43:f6:69:aa:34:
                    9d:e6:34:8d:8b:6e:5e:53:6b:39:85:a1:df:cc:de:
                    4c:45:3d:18:7a:ed:a4:fd:6c:9b:3e:b1:b3:fd:2c:
                    ab:ea:14:34:fb:41:33:f6:2e:73:c0:96:36:02:47:
                    c0:5d
                Exponent: 65537 (0x10001)
        X509v3 extensions:
            X509v3 Basic Constraints: 
                CA:FALSE
            X509v3 Subject Key Identifier: 
                7C:1B:1F:99:34:41:2E:AB:BB:8D:56:F6:91:73:1A:31:0E:27:94:72
            X509v3 Authority Key Identifier: 
                keyid:DE:41:FE:C3:39:DC:70:5C:1B:F1:7A:19:D7:A4:5B:F5:A1:C7:2B:19
                DirName:/CN=ChangeMe
                serial:3F:AC:49:88:55:60:F9:0F:C7:47:22:C3:6D:D2:E4:C3:C4:03:8F:1B
            X509v3 Extended Key Usage: 
                TLS Web Client Authentication
            X509v3 Key Usage: 
                Digital Signature
    Signature Algorithm: sha256WithRSAEncryption
    Signature Value:
        8a:13:bb:e7:bc:45:e6:1e:65:a6:9a:f9:21:49:77:2c:be:1b:
        91:2c:b3:75:cb:54:1f:59:ed:25:76:b6:cd:07:b6:f6:f3:27:
        55:e0:f0:6c:41:ae:57:68:64:af:cd:7a:45:b2:be:5b:38:fd:
        8c:7a:0e:29:02:7a:f2:3a:0e:ae:21:77:f8:3d:76:0a:7d:62:
        e0:e3:36:14:5f:61:b1:b6:2b:0a:aa:59:2b:a6:e5:f3:9d:7e:
        3e:0b:8e:a7:56:9f:3f:6c:a1:ec:02:56:3d:94:63:2e:01:7c:
        68:75:62:de:88:15:1a:70:be:b5:a4:9c:7d:9f:39:fd:ba:ec:
        a9:b4:8c:a6:f9:f3:b1:51:8e:73:2b:7a:93:b4:de:17:e9:b5:
        91:99:5e:15:7b:03:42:71:10:68:dc:9a:ab:43:89:ff:5e:6c:
        f3:a4:6a:31:ad:f1:83:cb:e6:cc:95:77:b8:02:bb:88:84:27:
        33:aa:48:4e:a3:e5:fd:2f:48:a7:f0:b0:75:67:e2:dc:e5:de:
        62:89:31:54:49:86:e0:9d:11:ae:f9:b4:f4:cf:62:6e:89:b7:
        87:5e:0d:2e:b0:1b:df:40:0f:2d:ab:7b:2d:1a:ad:44:12:ed:
        54:b1:8e:32:b1:b0:95:62:4b:a4:f5:2b:ae:e3:30:19:45:86:
        b2:2f:f4:c7
-----BEGIN CERTIFICATE-----
MIIDXTCCAkWgAwIBAgIQUx+MmykttR9Ktosef57tuGcwDQYJKoZIhvcNAQELBQAw
EzERMA8GA1UEAwwIQ2hhbmdlTWUeFw0yNTA1MTAxMDIwMDBaFw0yNzA4MTMxMDIw
MDBaMBExDzANBgNVBAMMBmNsaWVudDCCASIwDQYJKoZIhvcNAQEBBQADggEPADCC
AQoCggEBACo0rcx75LLmPptWoyY8470xt+2zaJ6I+/lI8JsQfnPLE7Rh7B6DGSvp
feXzIc9fOG0HWLz6sPo8I0U2P95Ic6s47TPJTWZJnpdfqkXxQE4aewbl0pc85COE
F3+rtPs+pWZ0UbuQ0bsO4OEvwmby5gq+/pjgO87Nnhwdc2WyR5SMrOIKJ1EpjhOW
oIBrkPI7/IAuTl1hppRgZK8fiavPYlLbOUdDm/UPlhD1mlmO47QeZ8zomXFsw8fU
Sm+yuw/ZpqjTd5jSNi27l5TazmFod/M3kxFPRh67aT9bJs+sbP9LKvqFDT7QTP2L
nPAljYCR8Bdh3ogVLHi+tacfZ8597rrKbcym+fOxUY5zK3qTtN4X6bWRmV4Ve4NC
cRBobJqrQ4n/XmzzpGoxrfGDy+bMZXe4AruIhCc6pITqPl/S9Ip/CwdWfi3OXeYp
MVEmG4J0Rrvm09M9ibomt4deDS6wG99ADy2rez0arUQS7VSxjjKxsJVjS6T1K67j
MBlFhrIvv8cCAwEAAaOBmjCBlzAJBgNVHRMEAjAAMB0GA1UdDgQWBBR8Gx+ZNEEu
q7uNVvaRcxoxDicUcjAfBgNVHSMEGDAWgBR+Qf7DOfHBcBvxehnXpFv1occrGTAf
BgNVHREEGDAWgRRTZXJ2ZXIgY2xpZW50IGlkZW50aXR5MA4GA1UdDwEB/wQEAwIF
oDANBgkqhkiG9w0BAQsFAAOCAQEAihO7528V5h5lppr5IUl3LL4bkSyzdcvUH1nt
JXa2zQe29vMnVeDwbEGuV2hkq817RbK+Wzj9jHoOKQJ68joOriF3+D12Cn1i4OM2
FF9hsbYrCqpZK6bl857ePgOJ51afP2yh7AJWPZRjLgF8aHZi3ogVGnC+taScfZ85
/brrKbcym+fOxUY5zK3qTtN4X6bWRmV4Ve4NCcRBobJqrQ4n/XmzzpGoxrfGDy+b
MZXe4AruIhCc6pITqPl/S9Ip/CwdWfi3OXeYpMVEmG4J0Rrvm09M9ibomt4deDS6
wG99ADy2rez0arUQS7VSxjjKxsJVjS6T1K67jMBlFhrIvv8c==
-----END CERTIFICATE-----
